target datalayout = "e-m:e-p270:32:32-p271:32:32-p272:64:64-i64:64-i128:128-f80:128-n8:16:32:64-S128"
target triple = "x86_64-pc-linux-gnu"

%struct.Decimal = type { i8, i8, i8, i8, i32, i32, ptr }

; Function Attrs: nounwind uwtable
define internal void @decimal_clear(ptr noundef %0) #0 {
  %2 = alloca ptr, align 8
  store ptr %0, ptr %2, align 8, !tbaa !68
  %3 = load ptr, ptr %2, align 8, !tbaa !68
  %4 = getelementptr inbounds nuw %struct.Decimal, ptr %3, i32 0, i32 6
  %5 = load ptr, ptr %4, align 8, !tbaa !75
  call void @sqlite3_free(ptr noundef %5)
  ret void
}

; Function Attrs: nounwind uwtable
define internal void @decimal_free(ptr noundef %0) #0 {
  %2 = alloca ptr, align 8
  store ptr %0, ptr %2, align 8, !tbaa !68
  %3 = load ptr, ptr %2, align 8, !tbaa !68
  %4 = icmp ne ptr %3, null
  br i1 %4, label %5, label %8

5:                                                ; preds = %1
  %6 = load ptr, ptr %2, align 8, !tbaa !68
  call void @decimal_clear(ptr noundef %6)
  %7 = load ptr, ptr %2, align 8, !tbaa !68
  call void @sqlite3_free(ptr noundef %7)
  br label %8

8:                                                ; preds = %5, %1
  ret void
}

; Function Attrs: nounwind uwtable
define internal i32 @decimal_cmp(ptr noundef %0, ptr noundef %1) #0 {
  %3 = alloca i32, align 4
  %4 = alloca ptr, align 8
  %5 = alloca ptr, align 8
  %6 = alloca i32, align 4
  %7 = alloca i32, align 4
  %8 = alloca i32, align 4
  %9 = alloca i32, align 4
  %10 = alloca i32, align 4
  %11 = alloca ptr, align 8
  store ptr %0, ptr %4, align 8, !tbaa !68
  store ptr %1, ptr %5, align 8, !tbaa !68
  call void @llvm.lifetime.start.p0(i64 4, ptr %6) #14
  call void @llvm.lifetime.start.p0(i64 4, ptr %7) #14
  call void @llvm.lifetime.start.p0(i64 4, ptr %8) #14
  call void @llvm.lifetime.start.p0(i64 4, ptr %9) #14
  %12 = load ptr, ptr %4, align 8, !tbaa !68
  %13 = getelementptr inbounds nuw %struct.Decimal, ptr %12, i32 0, i32 0
  %14 = load i8, ptr %13, align 8, !tbaa !72
  %15 = sext i8 %14 to i32
  %16 = load ptr, ptr %5, align 8, !tbaa !68
  %17 = getelementptr inbounds nuw %struct.Decimal, ptr %16, i32 0, i32 0
  %18 = load i8, ptr %17, align 8, !tbaa !72
  %19 = sext i8 %18 to i32
  %20 = icmp ne i32 %15, %19
  br i1 %20, label %21, label %28

21:                                               ; preds = %2
  %22 = load ptr, ptr %4, align 8, !tbaa !68
  %23 = getelementptr inbounds nuw %struct.Decimal, ptr %22, i32 0, i32 0
  %24 = load i8, ptr %23, align 8, !tbaa !72
  %25 = sext i8 %24 to i32
  %26 = icmp ne i32 %25, 0
  %27 = select i1 %26, i32 -1, i32 1
  store i32 %27, ptr %3, align 4
  store i32 1, ptr %10, align 4
  br label %94

28:                                               ; preds = %2
  %29 = load ptr, ptr %4, align 8, !tbaa !68
  %30 = getelementptr inbounds nuw %struct.Decimal, ptr %29, i32 0, i32 0
  %31 = load i8, ptr %30, align 8, !tbaa !72
  %32 = icmp ne i8 %31, 0
  br i1 %32, label %33, label %37

33:                                               ; preds = %28
  call void @llvm.lifetime.start.p0(i64 8, ptr %11) #14
  %34 = load ptr, ptr %4, align 8, !tbaa !68
  store ptr %34, ptr %11, align 8, !tbaa !68
  %35 = load ptr, ptr %5, align 8, !tbaa !68
  store ptr %35, ptr %4, align 8, !tbaa !68
  %36 = load ptr, ptr %11, align 8, !tbaa !68
  store ptr %36, ptr %5, align 8, !tbaa !68
  call void @llvm.lifetime.end.p0(i64 8, ptr %11) #14
  br label %37

37:                                               ; preds = %33, %28
  %38 = load ptr, ptr %4, align 8, !tbaa !68
  %39 = getelementptr inbounds nuw %struct.Decimal, ptr %38, i32 0, i32 4
  %40 = load i32, ptr %39, align 4, !tbaa !76
  %41 = load ptr, ptr %4, align 8, !tbaa !68
  %42 = getelementptr inbounds nuw %struct.Decimal, ptr %41, i32 0, i32 5
  %43 = load i32, ptr %42, align 8, !tbaa !77
  %44 = sub nsw i32 %40, %43
  store i32 %44, ptr %6, align 4, !tbaa !3
  %45 = load ptr, ptr %5, align 8, !tbaa !68
  %46 = getelementptr inbounds nuw %struct.Decimal, ptr %45, i32 0, i32 4
  %47 = load i32, ptr %46, align 4, !tbaa !76
  %48 = load ptr, ptr %5, align 8, !tbaa !68
  %49 = getelementptr inbounds nuw %struct.Decimal, ptr %48, i32 0, i32 5
  %50 = load i32, ptr %49, align 8, !tbaa !77
  %51 = sub nsw i32 %47, %50
  store i32 %51, ptr %7, align 4, !tbaa !3
  %52 = load i32, ptr %6, align 4, !tbaa !3
  %53 = load i32, ptr %7, align 4, !tbaa !3
  %54 = icmp ne i32 %52, %53
  br i1 %54, label %55, label %59

55:                                               ; preds = %37
  %56 = load i32, ptr %6, align 4, !tbaa !3
  %57 = load i32, ptr %7, align 4, !tbaa !3
  %58 = sub nsw i32 %56, %57
  store i32 %58, ptr %3, align 4
  store i32 1, ptr %10, align 4
  br label %94

59:                                               ; preds = %37
  %60 = load ptr, ptr %4, align 8, !tbaa !68
  %61 = getelementptr inbounds nuw %struct.Decimal, ptr %60, i32 0, i32 4
  %62 = load i32, ptr %61, align 4, !tbaa !76
  store i32 %62, ptr %9, align 4, !tbaa !3
  %63 = load i32, ptr %9, align 4, !tbaa !3
  %64 = load ptr, ptr %5, align 8, !tbaa !68
  %65 = getelementptr inbounds nuw %struct.Decimal, ptr %64, i32 0, i32 4
  %66 = load i32, ptr %65, align 4, !tbaa !76
  %67 = icmp sgt i32 %63, %66
  br i1 %67, label %68, label %72

68:                                               ; preds = %59
  %69 = load ptr, ptr %5, align 8, !tbaa !68
  %70 = getelementptr inbounds nuw %struct.Decimal, ptr %69, i32 0, i32 4
  %71 = load i32, ptr %70, align 4, !tbaa !76
  store i32 %71, ptr %9, align 4, !tbaa !3
  br label %72

72:                                               ; preds = %68, %59
  %73 = load ptr, ptr %4, align 8, !tbaa !68
  %74 = getelementptr inbounds nuw %struct.Decimal, ptr %73, i32 0, i32 6
  %75 = load ptr, ptr %74, align 8, !tbaa !75
  %76 = load ptr, ptr %5, align 8, !tbaa !68
  %77 = getelementptr inbounds nuw %struct.Decimal, ptr %76, i32 0, i32 6
  %78 = load ptr, ptr %77, align 8, !tbaa !75
  %79 = load i32, ptr %9, align 4, !tbaa !3
  %80 = sext i32 %79 to i64
  %81 = call i32 @memcmp(ptr noundef %75, ptr noundef %78, i64 noundef %80) #15
  store i32 %81, ptr %8, align 4, !tbaa !3
  %82 = load i32, ptr %8, align 4, !tbaa !3
  %83 = icmp eq i32 %82, 0
  br i1 %83, label %84, label %92

84:                                               ; preds = %72
  %85 = load ptr, ptr %4, align 8, !tbaa !68
  %86 = getelementptr inbounds nuw %struct.Decimal, ptr %85, i32 0, i32 4
  %87 = load i32, ptr %86, align 4, !tbaa !76
  %88 = load ptr, ptr %5, align 8, !tbaa !68
  %89 = getelementptr inbounds nuw %struct.Decimal, ptr %88, i32 0, i32 4
  %90 = load i32, ptr %89, align 4, !tbaa !76
  %91 = sub nsw i32 %87, %90
  store i32 %91, ptr %8, align 4, !tbaa !3
  br label %92

92:                                               ; preds = %84, %72
  %93 = load i32, ptr %8, align 4, !tbaa !3
  store i32 %93, ptr %3, align 4
  store i32 1, ptr %10, align 4
  br label %94

94:                                               ; preds = %92, %55, %21
  call void @llvm.lifetime.end.p0(i64 4, ptr %9) #14
  call void @llvm.lifetime.end.p0(i64 4, ptr %8) #14
  call void @llvm.lifetime.end.p0(i64 4, ptr %7) #14
  call void @llvm.lifetime.end.p0(i64 4, ptr %6) #14
  %95 = load i32, ptr %3, align 4
  ret i32 %95
}

; Function Attrs: nounwind uwtable
define internal i32 @decimalCollFunc(ptr noundef %0, i32 noundef %1, ptr noundef %2, i32 noundef %3, ptr noundef %4) #0 {
  %6 = alloca ptr, align 8
  %7 = alloca i32, align 4
  %8 = alloca ptr, align 8
  %9 = alloca i32, align 4
  %10 = alloca ptr, align 8
  %11 = alloca ptr, align 8
  %12 = alloca ptr, align 8
  %13 = alloca ptr, align 8
  %14 = alloca ptr, align 8
  %15 = alloca i32, align 4
  store ptr %0, ptr %6, align 8, !tbaa !53
  store i32 %1, ptr %7, align 4, !tbaa !3
  store ptr %2, ptr %8, align 8, !tbaa !53
  store i32 %3, ptr %9, align 4, !tbaa !3
  store ptr %4, ptr %10, align 8, !tbaa !53
  call void @llvm.lifetime.start.p0(i64 8, ptr %11) #14
  %16 = load ptr, ptr %8, align 8, !tbaa !53
  store ptr %16, ptr %11, align 8, !tbaa !36
  call void @llvm.lifetime.start.p0(i64 8, ptr %12) #14
  %17 = load ptr, ptr %10, align 8, !tbaa !53
  store ptr %17, ptr %12, align 8, !tbaa !36
  call void @llvm.lifetime.start.p0(i64 8, ptr %13) #14
  %18 = load ptr, ptr %11, align 8, !tbaa !36
  %19 = load i32, ptr %7, align 4, !tbaa !3
  %20 = call ptr @decimalNewFromText(ptr noundef %18, i32 noundef %19)
  store ptr %20, ptr %13, align 8, !tbaa !68
  call void @llvm.lifetime.start.p0(i64 8, ptr %14) #14
  %21 = load ptr, ptr %12, align 8, !tbaa !36
  %22 = load i32, ptr %9, align 4, !tbaa !3
  %23 = call ptr @decimalNewFromText(ptr noundef %21, i32 noundef %22)
  store ptr %23, ptr %14, align 8, !tbaa !68
  call void @llvm.lifetime.start.p0(i64 4, ptr %15) #14
  %24 = load ptr, ptr %13, align 8, !tbaa !68
  %25 = icmp eq ptr %24, null
  br i1 %25, label %29, label %26

26:                                               ; preds = %5
  %27 = load ptr, ptr %14, align 8, !tbaa !68
  %28 = icmp eq ptr %27, null
  br i1 %28, label %29, label %30

29:                                               ; preds = %26, %5
  store i32 0, ptr %15, align 4, !tbaa !3
  br label %34

30:                                               ; preds = %26
  %31 = load ptr, ptr %13, align 8, !tbaa !68
  %32 = load ptr, ptr %14, align 8, !tbaa !68
  %33 = call i32 @decimal_cmp(ptr noundef %31, ptr noundef %32)
  store i32 %33, ptr %15, align 4, !tbaa !3
  br label %34

34:                                               ; preds = %30, %29
  %35 = load ptr, ptr %13, align 8, !tbaa !68
  call void @decimal_free(ptr noundef %35)
  %36 = load ptr, ptr %14, align 8, !tbaa !68
  call void @decimal_free(ptr noundef %36)
  %37 = load i32, ptr %15, align 4, !tbaa !3
  call void @llvm.lifetime.end.p0(i64 4, ptr %15) #14
  call void @llvm.lifetime.end.p0(i64 8, ptr %14) #14
  call void @llvm.lifetime.end.p0(i64 8, ptr %13) #14
  call void @llvm.lifetime.end.p0(i64 8, ptr %12) #14
  call void @llvm.lifetime.end.p0(i64 8, ptr %11) #14
  ret i32 %37
}