; Function Attrs: nounwind uwtable
define internal i32 @decimalCollFunc(ptr readnone captures(none) %0, i32 noundef %1, ptr noundef readonly captures(none) %2, i32 noundef %3, ptr noundef readonly captures(none) %4) #2 {
  %6 = tail call fastcc ptr @decimalNewFromText(ptr noundef %2, i32 noundef %1)
  %7 = tail call fastcc ptr @decimalNewFromText(ptr noundef %4, i32 noundef %3)
  %8 = icmp eq ptr %6, null
  %9 = icmp eq ptr %7, null
  %or.cond = select i1 %8, i1 true, i1 %9
  br i1 %or.cond, label %decimal_cmp.exit, label %10

10:                                               ; preds = %5
  %11 = load i8, ptr %6, align 8, !tbaa !60
  %12 = load i8, ptr %7, align 8, !tbaa !60
  %.not.i = icmp eq i8 %11, %12
  %.not36.i = icmp eq i8 %11, 0
  br i1 %.not.i, label %15, label %13

13:                                               ; preds = %10
  %14 = select i1 %.not36.i, i32 1, i32 -1
  br label %decimal_cmp.exit.thread

15:                                               ; preds = %10
  %spec.select.i = select i1 %.not36.i, ptr %7, ptr %6
  %spec.select39.i = select i1 %.not36.i, ptr %6, ptr %7
  %16 = getelementptr inbounds nuw i8, ptr %spec.select39.i, i64 4
  %17 = load i32, ptr %16, align 4, !tbaa !61
  %18 = getelementptr inbounds nuw i8, ptr %spec.select39.i, i64 8
  %19 = load i32, ptr %18, align 8, !tbaa !62
  %20 = sub nsw i32 %17, %19
  %21 = getelementptr inbounds nuw i8, ptr %spec.select.i, i64 4
  %22 = load i32, ptr %21, align 4, !tbaa !61
  %23 = getelementptr inbounds nuw i8, ptr %spec.select.i, i64 8
  %24 = load i32, ptr %23, align 8, !tbaa !62
  %25 = sub nsw i32 %22, %24
  %.not37.i = icmp eq i32 %20, %25
  br i1 %.not37.i, label %28, label %26

26:                                               ; preds = %15
  %27 = sub nsw i32 %20, %25
  br label %decimal_cmp.exit.thread

28:                                               ; preds = %15
  %spec.select40.i = tail call i32 @llvm.smin.i32(i32 %17, i32 %22)
  %29 = getelementptr inbounds nuw i8, ptr %spec.select39.i, i64 16
  %30 = load ptr, ptr %29, align 8, !tbaa !57
  %31 = getelementptr inbounds nuw i8, ptr %spec.select.i, i64 16
  %32 = load ptr, ptr %31, align 8, !tbaa !57
  %33 = sext i32 %spec.select40.i to i64
  %34 = tail call i32 @memcmp(ptr noundef %30, ptr noundef %32, i64 noundef %33) #44
  %35 = icmp eq i32 %34, 0
  %36 = sub nsw i32 %17, %22
  %spec.select41.i = select i1 %35, i32 %36, i32 %34
  br label %decimal_cmp.exit.thread

decimal_cmp.exit:                                 ; preds = %5
  br i1 %8, label %decimal_free.exit, label %decimal_cmp.exit.thread

decimal_cmp.exit.thread:                          ; preds = %13, %26, %28, %decimal_cmp.exit
  %.020 = phi i32 [ 0, %decimal_cmp.exit ], [ %spec.select41.i, %28 ], [ %27, %26 ], [ %14, %13 ]
  %37 = getelementptr i8, ptr %6, i64 16
  %.val.i = load ptr, ptr %37, align 8, !tbaa !57
  tail call void @sqlite3_free(ptr noundef %.val.i) #43
  tail call void @sqlite3_free(ptr noundef nonnull %6) #43
  br label %decimal_free.exit

decimal_free.exit:                                ; preds = %decimal_cmp.exit, %decimal_cmp.exit.thread
  %.021 = phi i32 [ 0, %decimal_cmp.exit ], [ %.020, %decimal_cmp.exit.thread ]
  br i1 %9, label %decimal_free.exit18, label %38

38:                                               ; preds = %decimal_free.exit
  %39 = getelementptr i8, ptr %7, i64 16
  %.val.i17 = load ptr, ptr %39, align 8, !tbaa !57
  tail call void @sqlite3_free(ptr noundef %.val.i17) #43
  tail call void @sqlite3_free(ptr noundef nonnull %7) #43
  br label %decimal_free.exit18

decimal_free.exit18:                              ; preds = %decimal_free.exit, %38
  ret i32 %.021
}